---
triple:          'arm64-apple-darwin'
binary-path:     '/Users/anastasiia/Desktop/UNI/practice/oop/debugging/t2'
relocations:
  - { offsetInCU: 0x3110, offset: 0x3110, size: 0x8, addend: 0x0, symName: __ZNSt3__124__put_character_sequenceB7v160006IcNS_11char_traitsIcEEEERNS_13basic_ostreamIT_T0_EES7_PKS4_m, symObjAddr: 0x1368, symBinAddr: 0x100002528, symSize: 0x1EC }
  - { offsetInCU: 0x629F, offset: 0x629F, size: 0x8, addend: 0x0, symName: __ZNSt3__119__debug_db_insert_cB7v160006INS_4listI4GiftNS_9allocatorIS2_EEEEEEvPT_, symObjAddr: 0x684, symBinAddr: 0x100001844, symSize: 0x10 }
  - { offsetInCU: 0x6303, offset: 0x6303, size: 0x8, addend: 0x0, symName: __ZNSt3__1lsB7v160006INS_11char_traitsIcEEEERNS_13basic_ostreamIcT_EES6_PKc, symObjAddr: 0x964, symBinAddr: 0x100001B24, symSize: 0x48 }
  - { offsetInCU: 0x6349, offset: 0x6349, size: 0x8, addend: 0x0, symName: __ZNSt3__1lsB7v160006IcNS_11char_traitsIcEENS_9allocatorIcEEEERNS_13basic_ostreamIT_T0_EES9_RKNS_12basic_stringIS6_S7_T1_EE, symObjAddr: 0x9AC, symBinAddr: 0x100001B6C, symSize: 0x4C }
  - { offsetInCU: 0x63A1, offset: 0x63A1, size: 0x8, addend: 0x0, symName: __ZNSt3__14endlB7v160006IcNS_11char_traitsIcEEEERNS_13basic_ostreamIT_T0_EES7_, symObjAddr: 0xA24, symBinAddr: 0x100001BE4, symSize: 0x58 }
  - { offsetInCU: 0x63FF, offset: 0x63FF, size: 0x8, addend: 0x0, symName: __ZNSt3__117__libcpp_allocateB7v160006Emm, symObjAddr: 0xE44, symBinAddr: 0x100002004, symSize: 0x28 }
  - { offsetInCU: 0x643C, offset: 0x643C, size: 0x8, addend: 0x0, symName: __ZNSt3__121__libcpp_operator_newB7v160006IJmEEEPvDpT_, symObjAddr: 0xE84, symBinAddr: 0x100002044, symSize: 0x24 }
  - { offsetInCU: 0x6475, offset: 0x6475, size: 0x8, addend: 0x0, symName: __ZNSt3__119__libcpp_deallocateB7v160006EPvmm, symObjAddr: 0x12EC, symBinAddr: 0x1000024AC, symSize: 0x30 }
  - { offsetInCU: 0x64BD, offset: 0x64BD, size: 0x8, addend: 0x0, symName: __ZNSt3__127__do_deallocate_handle_sizeB7v160006IJEEEvPvmDpT_, symObjAddr: 0x131C, symBinAddr: 0x1000024DC, symSize: 0x28 }
  - { offsetInCU: 0x64FB, offset: 0x64FB, size: 0x8, addend: 0x0, symName: __ZNSt3__124__libcpp_operator_deleteB7v160006IJPvEEEvDpT_, symObjAddr: 0x1344, symBinAddr: 0x100002504, symSize: 0x24 }
  - { offsetInCU: 0x6530, offset: 0x6530, size: 0x8, addend: 0x0, symName: __ZNSt3__116__pad_and_outputB7v160006IcNS_11char_traitsIcEEEENS_19ostreambuf_iteratorIT_T0_EES6_PKS4_S8_S8_RNS_8ios_baseES4_, symObjAddr: 0x15A4, symBinAddr: 0x100002764, symSize: 0x240 }
  - { offsetInCU: 0x65FF, offset: 0x65FF, size: 0x8, addend: 0x0, symName: __ZNSt3__119__debug_db_insert_cB7v160006INS_12basic_stringIcNS_11char_traitsIcEENS_9allocatorIcEEEEEEvPT_, symObjAddr: 0x1A58, symBinAddr: 0x100002C18, symSize: 0x10 }
  - { offsetInCU: 0x6630, offset: 0x6630, size: 0x8, addend: 0x0, symName: __ZNSt3__112__to_addressB7v160006IKcEEPT_S3_, symObjAddr: 0x1B24, symBinAddr: 0x100002CE4, symSize: 0x14 }
  - { offsetInCU: 0x6698, offset: 0x6698, size: 0x8, addend: 0x0, symName: __ZNSt3__19use_facetB7v160006INS_5ctypeIcEEEERKT_RKNS_6localeE, symObjAddr: 0x1DA4, symBinAddr: 0x100002F64, symSize: 0x2C }
  - { offsetInCU: 0x6B67, offset: 0x6B67, size: 0x8, addend: 0x0, symName: __ZNSt3__118__constexpr_strlenB7v160006EPKc, symObjAddr: 0x1E3C, symBinAddr: 0x100002FFC, symSize: 0x24 }
  - { offsetInCU: 0x6B93, offset: 0x6B93, size: 0x8, addend: 0x0, symName: __ZNSt3__1neB7v160006ERKNS_15__list_iteratorI4GiftPvEES5_, symObjAddr: 0x1FD4, symBinAddr: 0x100003194, symSize: 0x34 }
  - { offsetInCU: 0x6BD0, offset: 0x6BD0, size: 0x8, addend: 0x0, symName: __ZNSt3__1eqB7v160006ERKNS_15__list_iteratorI4GiftPvEES5_, symObjAddr: 0x2120, symBinAddr: 0x1000032E0, symSize: 0x30 }
  - { offsetInCU: 0x6C0D, offset: 0x6C0D, size: 0x8, addend: 0x0, symName: __ZNSt3__1eqB7v160006INS_9allocatorIcEEEEbRKNS_12basic_stringIcNS_11char_traitsIcEET_EES9_, symObjAddr: 0x2174, symBinAddr: 0x100003334, symSize: 0x148 }
  - { offsetInCU: 0x6C80, offset: 0x6C80, size: 0x8, addend: 0x0, symName: __ZNSt3__118__constexpr_memcmpB7v160006IcEEiPKT_S3_m, symObjAddr: 0x2430, symBinAddr: 0x1000035F0, symSize: 0x34 }
  - { offsetInCU: 0x6D04, offset: 0x6D04, size: 0x8, addend: 0x0, symName: __ZNSt3__118__debug_db_erase_cB7v160006INS_10__list_impI4GiftNS_9allocatorIS2_EEEEEEvPT_, symObjAddr: 0x269C, symBinAddr: 0x10000385C, symSize: 0x10 }
  - { offsetInCU: 0x6D35, offset: 0x6D35, size: 0x8, addend: 0x0, symName: __ZNSt3__125__debug_db_invalidate_allB7v160006INS_10__list_impI4GiftNS_9allocatorIS2_EEEEEEvPT_, symObjAddr: 0x26E0, symBinAddr: 0x1000038A0, symSize: 0x10 }
  - { offsetInCU: 0x6DFE, offset: 0x6DFE, size: 0x8, addend: 0x0, symName: __ZSt28__throw_bad_array_new_lengthB7v160006v, symObjAddr: 0xE10, symBinAddr: 0x100001FD0, symSize: 0x34 }
  - { offsetInCU: 0x92EC, offset: 0x92EC, size: 0x8, addend: 0x0, symName: _main, symObjAddr: 0x0, symBinAddr: 0x1000011C0, symSize: 0x230 }
  - { offsetInCU: 0x95A3, offset: 0x95A3, size: 0x8, addend: 0x0, symName: __ZN5SantaC1Ev, symObjAddr: 0x230, symBinAddr: 0x1000013F0, symSize: 0x2C }
  - { offsetInCU: 0x95CD, offset: 0x95CD, size: 0x8, addend: 0x0, symName: __ZN5Santa7addGiftERK4Gift, symObjAddr: 0x25C, symBinAddr: 0x10000141C, symSize: 0x78 }
  - { offsetInCU: 0x9605, offset: 0x9605, size: 0x8, addend: 0x0, symName: __ZNSt3__112basic_stringIcNS_11char_traitsIcEENS_9allocatorIcEEEC1B7v160006IDnEEPKc, symObjAddr: 0x2D4, symBinAddr: 0x100001494, symSize: 0x34 }
  - { offsetInCU: 0x9641, offset: 0x9641, size: 0x8, addend: 0x0, symName: __ZN4GiftC1ERKNSt3__112basic_stringIcNS0_11char_traitsIcEENS0_9allocatorIcEEEEi, symObjAddr: 0x308, symBinAddr: 0x1000014C8, symSize: 0x3C }
  - { offsetInCU: 0x9684, offset: 0x9684, size: 0x8, addend: 0x0, symName: __ZN4GiftD1Ev, symObjAddr: 0x344, symBinAddr: 0x100001504, symSize: 0x2C }
  - { offsetInCU: 0x96AE, offset: 0x96AE, size: 0x8, addend: 0x0, symName: __ZN5Santa16printTotalWeightEv, symObjAddr: 0x370, symBinAddr: 0x100001530, symSize: 0xBC }
  - { offsetInCU: 0x9733, offset: 0x9733, size: 0x8, addend: 0x0, symName: __ZN5Santa10removeGiftERKNSt3__112basic_stringIcNS0_11char_traitsIcEENS0_9allocatorIcEEEE, symObjAddr: 0x42C, symBinAddr: 0x1000015EC, symSize: 0x148 }
  - { offsetInCU: 0x9782, offset: 0x9782, size: 0x8, addend: 0x0, symName: __ZN5SantaD1Ev, symObjAddr: 0x574, symBinAddr: 0x100001734, symSize: 0x2C }
  - { offsetInCU: 0x97AC, offset: 0x97AC, size: 0x8, addend: 0x0, symName: __ZN5SantaC2Ev, symObjAddr: 0x5A0, symBinAddr: 0x100001760, symSize: 0x2C }
  - { offsetInCU: 0x97D7, offset: 0x97D7, size: 0x8, addend: 0x0, symName: __ZNSt3__14listI4GiftNS_9allocatorIS1_EEEC1B7v160006Ev, symObjAddr: 0x5CC, symBinAddr: 0x10000178C, symSize: 0x2C }
  - { offsetInCU: 0x97FF, offset: 0x97FF, size: 0x8, addend: 0x0, symName: __ZNSt3__14listI4GiftNS_9allocatorIS1_EEEC2B7v160006Ev, symObjAddr: 0x5F8, symBinAddr: 0x1000017B8, symSize: 0x3C }
  - { offsetInCU: 0x9827, offset: 0x9827, size: 0x8, addend: 0x0, symName: __ZNSt3__110__list_impI4GiftNS_9allocatorIS1_EEEC2Ev, symObjAddr: 0x634, symBinAddr: 0x1000017F4, symSize: 0x50 }
  - { offsetInCU: 0x9852, offset: 0x9852, size: 0x8, addend: 0x0, symName: __ZNSt3__116__list_node_baseI4GiftPvEC1B7v160006Ev, symObjAddr: 0x6A0, symBinAddr: 0x100001860, symSize: 0x2C }
  - { offsetInCU: 0x9884, offset: 0x9884, size: 0x8, addend: 0x0, symName: __ZNSt3__117__compressed_pairImNS_9allocatorINS_11__list_nodeI4GiftPvEEEEEC1B7v160006IiNS_18__default_init_tagEEEOT_OT0_, symObjAddr: 0x6CC, symBinAddr: 0x10000188C, symSize: 0x3C }
  - { offsetInCU: 0x98DA, offset: 0x98DA, size: 0x8, addend: 0x0, symName: __ZNSt3__116__list_node_baseI4GiftPvEC2B7v160006Ev, symObjAddr: 0x708, symBinAddr: 0x1000018C8, symSize: 0x4C }
  - { offsetInCU: 0x9902, offset: 0x9902, size: 0x8, addend: 0x0, symName: __ZNSt3__126__list_node_pointer_traitsI4GiftPvE26__unsafe_link_pointer_castB7v160006EPNS_16__list_node_baseIS1_S2_EE, symObjAddr: 0x754, symBinAddr: 0x100001914, symSize: 0x14 }
  - { offsetInCU: 0x9925, offset: 0x9925, size: 0x8, addend: 0x0, symName: __ZNSt3__116__list_node_baseI4GiftPvE6__selfB7v160006Ev, symObjAddr: 0x768, symBinAddr: 0x100001928, symSize: 0x24 }
  - { offsetInCU: 0x994F, offset: 0x994F, size: 0x8, addend: 0x0, symName: __ZNSt3__114pointer_traitsIPNS_16__list_node_baseI4GiftPvEEE10pointer_toB7v160006ERS4_, symObjAddr: 0x78C, symBinAddr: 0x10000194C, symSize: 0x14 }
  - { offsetInCU: 0x9972, offset: 0x9972, size: 0x8, addend: 0x0, symName: __ZNSt3__117__compressed_pairImNS_9allocatorINS_11__list_nodeI4GiftPvEEEEEC2B7v160006IiNS_18__default_init_tagEEEOT_OT0_, symObjAddr: 0x7A0, symBinAddr: 0x100001960, symSize: 0x40 }
  - { offsetInCU: 0x99C8, offset: 0x99C8, size: 0x8, addend: 0x0, symName: __ZNSt3__122__compressed_pair_elemImLi0ELb0EEC2B7v160006IivEEOT_, symObjAddr: 0x7E0, symBinAddr: 0x1000019A0, symSize: 0x24 }
  - { offsetInCU: 0x9A09, offset: 0x9A09, size: 0x8, addend: 0x0, symName: __ZNSt3__122__compressed_pair_elemINS_9allocatorINS_11__list_nodeI4GiftPvEEEELi1ELb1EEC2B7v160006ENS_18__default_init_tagE, symObjAddr: 0x804, symBinAddr: 0x1000019C4, symSize: 0x2C }
  - { offsetInCU: 0x9A3C, offset: 0x9A3C, size: 0x8, addend: 0x0, symName: __ZNSt3__19allocatorINS_11__list_nodeI4GiftPvEEEC2B7v160006Ev, symObjAddr: 0x830, symBinAddr: 0x1000019F0, symSize: 0x2C }
  - { offsetInCU: 0x9A64, offset: 0x9A64, size: 0x8, addend: 0x0, symName: __ZNSt3__116__non_trivial_ifILb1ENS_9allocatorINS_11__list_nodeI4GiftPvEEEEEC2B7v160006Ev, symObjAddr: 0x85C, symBinAddr: 0x100001A1C, symSize: 0x14 }
  - { offsetInCU: 0x9A8D, offset: 0x9A8D, size: 0x8, addend: 0x0, symName: __ZNSt3__14listI4GiftNS_9allocatorIS1_EEE9push_backERKS1_, symObjAddr: 0x870, symBinAddr: 0x100001A30, symSize: 0xF4 }
  - { offsetInCU: 0x9AE0, offset: 0x9AE0, size: 0x8, addend: 0x0, symName: __ZNSt3__113basic_ostreamIcNS_11char_traitsIcEEElsB7v160006EPFRS3_S4_E, symObjAddr: 0x9F8, symBinAddr: 0x100001BB8, symSize: 0x2C }
  - { offsetInCU: 0x9B12, offset: 0x9B12, size: 0x8, addend: 0x0, symName: __ZNSt3__110__list_impI4GiftNS_9allocatorIS1_EEE12__node_allocB7v160006Ev, symObjAddr: 0xA7C, symBinAddr: 0x100001C3C, symSize: 0x28 }
  - { offsetInCU: 0x9B36, offset: 0x9B36, size: 0x8, addend: 0x0, symName: __ZNSt3__14listI4GiftNS_9allocatorIS1_EEE15__allocate_nodeB7v160006ERNS2_INS_11__list_nodeIS1_PvEEEE, symObjAddr: 0xAA4, symBinAddr: 0x100001C64, symSize: 0x70 }
  - { offsetInCU: 0x9B79, offset: 0x9B79, size: 0x8, addend: 0x0, symName: __ZNSt3__116allocator_traitsINS_9allocatorINS_11__list_nodeI4GiftPvEEEEE9constructB7v160006IS3_JRKS3_EvEEvRS6_PT_DpOT0_, symObjAddr: 0xB14, symBinAddr: 0x100001CD4, symSize: 0x34 }
  - { offsetInCU: 0x9BCF, offset: 0x9BCF, size: 0x8, addend: 0x0, symName: __ZNKSt3__110unique_ptrINS_11__list_nodeI4GiftPvEENS_22__allocator_destructorINS_9allocatorIS4_EEEEEptB7v160006Ev, symObjAddr: 0xB48, symBinAddr: 0x100001D08, symSize: 0x28 }
  - { offsetInCU: 0x9BF4, offset: 0x9BF4, size: 0x8, addend: 0x0, symName: __ZNSt3__14listI4GiftNS_9allocatorIS1_EEE20__link_nodes_at_backEPNS_16__list_node_baseIS1_PvEES8_, symObjAddr: 0xB70, symBinAddr: 0x100001D30, symSize: 0x60 }
  - { offsetInCU: 0x9C38, offset: 0x9C38, size: 0x8, addend: 0x0, symName: __ZNKSt3__110unique_ptrINS_11__list_nodeI4GiftPvEENS_22__allocator_destructorINS_9allocatorIS4_EEEEE3getB7v160006Ev, symObjAddr: 0xBD0, symBinAddr: 0x100001D90, symSize: 0x28 }
  - { offsetInCU: 0x9C5C, offset: 0x9C5C, size: 0x8, addend: 0x0, symName: __ZNSt3__111__list_nodeI4GiftPvE9__as_linkB7v160006Ev, symObjAddr: 0xBF8, symBinAddr: 0x100001DB8, symSize: 0x24 }
  - { offsetInCU: 0x9C80, offset: 0x9C80, size: 0x8, addend: 0x0, symName: __ZNSt3__110__list_impI4GiftNS_9allocatorIS1_EEE4__szB7v160006Ev, symObjAddr: 0xC1C, symBinAddr: 0x100001DDC, symSize: 0x28 }
  - { offsetInCU: 0x9CA4, offset: 0x9CA4, size: 0x8, addend: 0x0, symName: __ZNSt3__110unique_ptrINS_11__list_nodeI4GiftPvEENS_22__allocator_destructorINS_9allocatorIS4_EEEEE7releaseB7v160006Ev, symObjAddr: 0xC44, symBinAddr: 0x100001E04, symSize: 0x44 }
  - { offsetInCU: 0x9CD8, offset: 0x9CD8, size: 0x8, addend: 0x0, symName: __ZNSt3__110unique_ptrINS_11__list_nodeI4GiftPvEENS_22__allocator_destructorINS_9allocatorIS4_EEEEED1B7v160006Ev, symObjAddr: 0xC88, symBinAddr: 0x100001E48, symSize: 0x2C }
  - { offsetInCU: 0x9CFF, offset: 0x9CFF, size: 0x8, addend: 0x0, symName: __ZNSt3__117__compressed_pairImNS_9allocatorINS_11__list_nodeI4GiftPvEEEEE6secondB7v160006Ev, symObjAddr: 0xCB4, symBinAddr: 0x100001E74, symSize: 0x24 }
  - { offsetInCU: 0x9D24, offset: 0x9D24, size: 0x8, addend: 0x0, symName: __ZNSt3__122__compressed_pair_elemINS_9allocatorINS_11__list_nodeI4GiftPvEEEELi1ELb1EE5__getB7v160006Ev, symObjAddr: 0xCD8, symBinAddr: 0x100001E98, symSize: 0x14 }
  - { offsetInCU: 0x9D49, offset: 0x9D49, size: 0x8, addend: 0x0, symName: __ZNSt3__116allocator_traitsINS_9allocatorINS_11__list_nodeI4GiftPvEEEEE8allocateB7v160006ERS6_m, symObjAddr: 0xCEC, symBinAddr: 0x100001EAC, symSize: 0x2C }
  - { offsetInCU: 0x9D7C, offset: 0x9D7C, size: 0x8, addend: 0x0, symName: __ZNSt3__122__allocator_destructorINS_9allocatorINS_11__list_nodeI4GiftPvEEEEEC1B7v160006ERS6_m, symObjAddr: 0xD18, symBinAddr: 0x100001ED8, symSize: 0x3C }
  - { offsetInCU: 0x9DC5, offset: 0x9DC5, size: 0x8, addend: 0x0, symName: __ZNSt3__110unique_ptrINS_11__list_nodeI4GiftPvEENS_22__allocator_destructorINS_9allocatorIS4_EEEEEC1B7v160006ILb1EvEEPS4_NS_16__dependent_typeINS_27__unique_ptr_deleter_sfinaeIS8_EEXT_EE20__good_rval_ref_typeE, symObjAddr: 0xD54, symBinAddr: 0x100001F14, symSize: 0x3C }
  - { offsetInCU: 0x9E13, offset: 0x9E13, size: 0x8, addend: 0x0, symName: __ZNSt3__19allocatorINS_11__list_nodeI4GiftPvEEE8allocateB7v160006Em, symObjAddr: 0xD90, symBinAddr: 0x100001F50, symSize: 0x5C }
  - { offsetInCU: 0x9E50, offset: 0x9E50, size: 0x8, addend: 0x0, symName: __ZNSt3__116allocator_traitsINS_9allocatorINS_11__list_nodeI4GiftPvEEEEE8max_sizeB7v160006IS6_vEEmRKS6_, symObjAddr: 0xDEC, symBinAddr: 0x100001FAC, symSize: 0x24 }
  - { offsetInCU: 0x9E7E, offset: 0x9E7E, size: 0x8, addend: 0x0, symName: __ZNKSt3__19allocatorINS_11__list_nodeI4GiftPvEEE8max_sizeB7v160006Ev, symObjAddr: 0xE6C, symBinAddr: 0x10000202C, symSize: 0x18 }
  - { offsetInCU: 0x9EA3, offset: 0x9EA3, size: 0x8, addend: 0x0, symName: __ZNSt3__122__allocator_destructorINS_9allocatorINS_11__list_nodeI4GiftPvEEEEEC2B7v160006ERS6_m, symObjAddr: 0xEA8, symBinAddr: 0x100002068, symSize: 0x2C }
  - { offsetInCU: 0x9EE8, offset: 0x9EE8, size: 0x8, addend: 0x0, symName: __ZNSt3__110unique_ptrINS_11__list_nodeI4GiftPvEENS_22__allocator_destructorINS_9allocatorIS4_EEEEEC2B7v160006ILb1EvEEPS4_NS_16__dependent_typeINS_27__unique_ptr_deleter_sfinaeIS8_EEXT_EE20__good_rval_ref_typeE, symObjAddr: 0xED4, symBinAddr: 0x100002094, symSize: 0x48 }
  - { offsetInCU: 0x9F37, offset: 0x9F37, size: 0x8, addend: 0x0, symName: __ZNSt3__117__compressed_pairIPNS_11__list_nodeI4GiftPvEENS_22__allocator_destructorINS_9allocatorIS4_EEEEEC1B7v160006IRS5_S9_EEOT_OT0_, symObjAddr: 0xF1C, symBinAddr: 0x1000020DC, symSize: 0x3C }
  - { offsetInCU: 0x9F8D, offset: 0x9F8D, size: 0x8, addend: 0x0, symName: __ZNSt3__117__compressed_pairIPNS_11__list_nodeI4GiftPvEENS_22__allocator_destructorINS_9allocatorIS4_EEEEEC2B7v160006IRS5_S9_EEOT_OT0_, symObjAddr: 0xF58, symBinAddr: 0x100002118, symSize: 0x48 }
  - { offsetInCU: 0x9FE3, offset: 0x9FE3, size: 0x8, addend: 0x0, symName: __ZNSt3__122__compressed_pair_elemIPNS_11__list_nodeI4GiftPvEELi0ELb0EEC2B7v160006IRS5_vEEOT_, symObjAddr: 0xFA0, symBinAddr: 0x100002160, symSize: 0x24 }
  - { offsetInCU: 0xA024, offset: 0xA024, size: 0x8, addend: 0x0, symName: __ZNSt3__122__compressed_pair_elemINS_22__allocator_destructorINS_9allocatorINS_11__list_nodeI4GiftPvEEEEEELi1ELb0EEC2B7v160006IS8_vEEOT_, symObjAddr: 0xFC4, symBinAddr: 0x100002184, symSize: 0x24 }
  - { offsetInCU: 0xA064, offset: 0xA064, size: 0x8, addend: 0x0, symName: __ZNSt3__19allocatorINS_11__list_nodeI4GiftPvEEE9constructB7v160006IS2_JRKS2_EEEvPT_DpOT0_, symObjAddr: 0xFE8, symBinAddr: 0x1000021A8, symSize: 0x30 }
  - { offsetInCU: 0xA0B8, offset: 0xA0B8, size: 0x8, addend: 0x0, symName: __ZN4GiftC1ERKS_, symObjAddr: 0x1018, symBinAddr: 0x1000021D8, symSize: 0x34 }
  - { offsetInCU: 0xA0EB, offset: 0xA0EB, size: 0x8, addend: 0x0, symName: __ZN4GiftC2ERKS_, symObjAddr: 0x104C, symBinAddr: 0x10000220C, symSize: 0x40 }
  - { offsetInCU: 0xA11E, offset: 0xA11E, size: 0x8, addend: 0x0, symName: __ZNKSt3__117__compressed_pairIPNS_11__list_nodeI4GiftPvEENS_22__allocator_destructorINS_9allocatorIS4_EEEEE5firstB7v160006Ev, symObjAddr: 0x108C, symBinAddr: 0x10000224C, symSize: 0x24 }
  - { offsetInCU: 0xA143, offset: 0xA143, size: 0x8, addend: 0x0, symName: __ZNKSt3__122__compressed_pair_elemIPNS_11__list_nodeI4GiftPvEELi0ELb0EE5__getB7v160006Ev, symObjAddr: 0x10B0, symBinAddr: 0x100002270, symSize: 0x14 }
  - { offsetInCU: 0xA167, offset: 0xA167, size: 0x8, addend: 0x0, symName: __ZNKSt3__110__list_impI4GiftNS_9allocatorIS1_EEE13__end_as_linkB7v160006Ev, symObjAddr: 0x10C4, symBinAddr: 0x100002284, symSize: 0x28 }
  - { offsetInCU: 0xA18B, offset: 0xA18B, size: 0x8, addend: 0x0, symName: __ZNSt3__117__compressed_pairImNS_9allocatorINS_11__list_nodeI4GiftPvEEEEE5firstB7v160006Ev, symObjAddr: 0x10EC, symBinAddr: 0x1000022AC, symSize: 0x24 }
  - { offsetInCU: 0xA1B0, offset: 0xA1B0, size: 0x8, addend: 0x0, symName: __ZNSt3__122__compressed_pair_elemImLi0ELb0EE5__getB7v160006Ev, symObjAddr: 0x1110, symBinAddr: 0x1000022D0, symSize: 0x14 }
  - { offsetInCU: 0xA1D4, offset: 0xA1D4, size: 0x8, addend: 0x0, symName: __ZNSt3__117__compressed_pairIPNS_11__list_nodeI4GiftPvEENS_22__allocator_destructorINS_9allocatorIS4_EEEEE5firstB7v160006Ev, symObjAddr: 0x1124, symBinAddr: 0x1000022E4, symSize: 0x24 }
  - { offsetInCU: 0xA1F9, offset: 0xA1F9, size: 0x8, addend: 0x0, symName: __ZNSt3__122__compressed_pair_elemIPNS_11__list_nodeI4GiftPvEELi0ELb0EE5__getB7v160006Ev, symObjAddr: 0x1148, symBinAddr: 0x100002308, symSize: 0x14 }
  - { offsetInCU: 0xA21E, offset: 0xA21E, size: 0x8, addend: 0x0, symName: __ZNSt3__110unique_ptrINS_11__list_nodeI4GiftPvEENS_22__allocator_destructorINS_9allocatorIS4_EEEEED2B7v160006Ev, symObjAddr: 0x115C, symBinAddr: 0x10000231C, symSize: 0x30 }
  - { offsetInCU: 0xA245, offset: 0xA245, size: 0x8, addend: 0x0, symName: __ZNSt3__110unique_ptrINS_11__list_nodeI4GiftPvEENS_22__allocator_destructorINS_9allocatorIS4_EEEEE5resetB7v160006EPS4_, symObjAddr: 0x118C, symBinAddr: 0x10000234C, symSize: 0x78 }
  - { offsetInCU: 0xA287, offset: 0xA287, size: 0x8, addend: 0x0, symName: __ZNSt3__117__compressed_pairIPNS_11__list_nodeI4GiftPvEENS_22__allocator_destructorINS_9allocatorIS4_EEEEE6secondB7v160006Ev, symObjAddr: 0x1204, symBinAddr: 0x1000023C4, symSize: 0x28 }
  - { offsetInCU: 0xA2AB, offset: 0xA2AB, size: 0x8, addend: 0x0, symName: __ZNSt3__122__allocator_destructorINS_9allocatorINS_11__list_nodeI4GiftPvEEEEEclB7v160006EPS5_, symObjAddr: 0x122C, symBinAddr: 0x1000023EC, symSize: 0x34 }
  - { offsetInCU: 0xA2DE, offset: 0xA2DE, size: 0x8, addend: 0x0, symName: __ZNSt3__122__compressed_pair_elemINS_22__allocator_destructorINS_9allocatorINS_11__list_nodeI4GiftPvEEEEEELi1ELb0EE5__getB7v160006Ev, symObjAddr: 0x1260, symBinAddr: 0x100002420, symSize: 0x14 }
  - { offsetInCU: 0xA303, offset: 0xA303, size: 0x8, addend: 0x0, symName: __ZNSt3__116allocator_traitsINS_9allocatorINS_11__list_nodeI4GiftPvEEEEE10deallocateB7v160006ERS6_PS5_m, symObjAddr: 0x1274, symBinAddr: 0x100002434, symSize: 0x34 }
  - { offsetInCU: 0xA344, offset: 0xA344, size: 0x8, addend: 0x0, symName: __ZNSt3__19allocatorINS_11__list_nodeI4GiftPvEEE10deallocateB7v160006EPS4_m, symObjAddr: 0x12A8, symBinAddr: 0x100002468, symSize: 0x44 }
  - { offsetInCU: 0xA385, offset: 0xA385, size: 0x8, addend: 0x0, symName: __ZNSt3__111char_traitsIcE6lengthEPKc, symObjAddr: 0x1554, symBinAddr: 0x100002714, symSize: 0x34 }
  - { offsetInCU: 0xA3C6, offset: 0xA3C6, size: 0x8, addend: 0x0, symName: __ZNKSt3__113basic_ostreamIcNS_11char_traitsIcEEE6sentrycvbB7v160006Ev, symObjAddr: 0x1588, symBinAddr: 0x100002748, symSize: 0x1C }
  - { offsetInCU: 0xA3EB, offset: 0xA3EB, size: 0x8, addend: 0x0, symName: __ZNSt3__119ostreambuf_iteratorIcNS_11char_traitsIcEEEC1B7v160006ERNS_13basic_ostreamIcS2_EE, symObjAddr: 0x17E4, symBinAddr: 0x1000029A4, symSize: 0x34 }
  - { offsetInCU: 0xA421, offset: 0xA421, size: 0x8, addend: 0x0, symName: __ZNKSt3__18ios_base5flagsB7v160006Ev, symObjAddr: 0x1818, symBinAddr: 0x1000029D8, symSize: 0x18 }
  - { offsetInCU: 0xA448, offset: 0xA448, size: 0x8, addend: 0x0, symName: __ZNKSt3__19basic_iosIcNS_11char_traitsIcEEE4fillB7v160006Ev, symObjAddr: 0x1830, symBinAddr: 0x1000029F0, symSize: 0x64 }
  - { offsetInCU: 0xA46F, offset: 0xA46F, size: 0x8, addend: 0x0, symName: __ZNKSt3__119ostreambuf_iteratorIcNS_11char_traitsIcEEE6failedB7v160006Ev, symObjAddr: 0x1894, symBinAddr: 0x100002A54, symSize: 0x24 }
  - { offsetInCU: 0xA493, offset: 0xA493, size: 0x8, addend: 0x0, symName: __ZNSt3__19basic_iosIcNS_11char_traitsIcEEE8setstateB7v160006Ej, symObjAddr: 0x18B8, symBinAddr: 0x100002A78, symSize: 0x2C }
  - { offsetInCU: 0xA4C7, offset: 0xA4C7, size: 0x8, addend: 0x0, symName: __ZNKSt3__18ios_base5widthB7v160006Ev, symObjAddr: 0x18E4, symBinAddr: 0x100002AA4, symSize: 0x18 }
  - { offsetInCU: 0xA4ED, offset: 0xA4ED, size: 0x8, addend: 0x0, symName: __ZNSt3__115basic_streambufIcNS_11char_traitsIcEEE5sputnB7v160006EPKcl, symObjAddr: 0x18FC, symBinAddr: 0x100002ABC, symSize: 0x3C }
  - { offsetInCU: 0xA52E, offset: 0xA52E, size: 0x8, addend: 0x0, symName: __ZNSt3__112basic_stringIcNS_11char_traitsIcEENS_9allocatorIcEEEC1B7v160006Emc, symObjAddr: 0x1938, symBinAddr: 0x100002AF8, symSize: 0x3C }
  - { offsetInCU: 0xA573, offset: 0xA573, size: 0x8, addend: 0x0, symName: __ZNKSt3__112basic_stringIcNS_11char_traitsIcEENS_9allocatorIcEEE4dataB7v160006Ev, symObjAddr: 0x1974, symBinAddr: 0x100002B34, symSize: 0x28 }
  - { offsetInCU: 0xA598, offset: 0xA598, size: 0x8, addend: 0x0, symName: __ZNSt3__18ios_base5widthB7v160006El, symObjAddr: 0x199C, symBinAddr: 0x100002B5C, symSize: 0x2C }
  - { offsetInCU: 0xA5DD, offset: 0xA5DD, size: 0x8, addend: 0x0, symName: __ZNSt3__112basic_stringIcNS_11char_traitsIcEENS_9allocatorIcEEEC2B7v160006Emc, symObjAddr: 0x19C8, symBinAddr: 0x100002B88, symSize: 0x54 }
  - { offsetInCU: 0xA623, offset: 0xA623, size: 0x8, addend: 0x0, symName: __ZNSt3__117__compressed_pairINS_12basic_stringIcNS_11char_traitsIcEENS_9allocatorIcEEE5__repES5_EC1B7v160006INS_18__default_init_tagESA_EEOT_OT0_, symObjAddr: 0x1A1C, symBinAddr: 0x100002BDC, symSize: 0x3C }
  - { offsetInCU: 0xA679, offset: 0xA679, size: 0x8, addend: 0x0, symName: __ZNSt3__117__compressed_pairINS_12basic_stringIcNS_11char_traitsIcEENS_9allocatorIcEEE5__repES5_EC2B7v160006INS_18__default_init_tagESA_EEOT_OT0_, symObjAddr: 0x1A68, symBinAddr: 0x100002C28, symSize: 0x3C }
  - { offsetInCU: 0xA6CF, offset: 0xA6CF, size: 0x8, addend: 0x0, symName: __ZNSt3__122__compressed_pair_elemINS_12basic_stringIcNS_11char_traitsIcEENS_9allocatorIcEEE5__repELi0ELb0EEC2B7v160006ENS_18__default_init_tagE, symObjAddr: 0x1AA4, symBinAddr: 0x100002C64, symSize: 0x14 }
  - { offsetInCU: 0xA703, offset: 0xA703, size: 0x8, addend: 0x0, symName: __ZNSt3__122__compressed_pair_elemINS_9allocatorIcEELi1ELb1EEC2B7v160006ENS_18__default_init_tagE, symObjAddr: 0x1AB8, symBinAddr: 0x100002C78, symSize: 0x2C }
  - { offsetInCU: 0xA736, offset: 0xA736, size: 0x8, addend: 0x0, symName: __ZNSt3__19allocatorIcEC2B7v160006Ev, symObjAddr: 0x1AE4, symBinAddr: 0x100002CA4, symSize: 0x2C }
  - { offsetInCU: 0xA75E, offset: 0xA75E, size: 0x8, addend: 0x0, symName: __ZNSt3__116__non_trivial_ifILb1ENS_9allocatorIcEEEC2B7v160006Ev, symObjAddr: 0x1B10, symBinAddr: 0x100002CD0, symSize: 0x14 }
  - { offsetInCU: 0xA786, offset: 0xA786, size: 0x8, addend: 0x0, symName: __ZNKSt3__112basic_stringIcNS_11char_traitsIcEENS_9allocatorIcEEE13__get_pointerB7v160006Ev, symObjAddr: 0x1B38, symBinAddr: 0x100002CF8, symSize: 0x54 }
  - { offsetInCU: 0xA7AA, offset: 0xA7AA, size: 0x8, addend: 0x0, symName: __ZNKSt3__112basic_stringIcNS_11char_traitsIcEENS_9allocatorIcEEE9__is_longB7v160006Ev, symObjAddr: 0x1B8C, symBinAddr: 0x100002D4C, symSize: 0x38 }
  - { offsetInCU: 0xA7CE, offset: 0xA7CE, size: 0x8, addend: 0x0, symName: __ZNKSt3__112basic_stringIcNS_11char_traitsIcEENS_9allocatorIcEEE18__get_long_pointerB7v160006Ev, symObjAddr: 0x1BC4, symBinAddr: 0x100002D84, symSize: 0x28 }
  - { offsetInCU: 0xA7F2, offset: 0xA7F2, size: 0x8, addend: 0x0, symName: __ZNKSt3__112basic_stringIcNS_11char_traitsIcEENS_9allocatorIcEEE19__get_short_pointerB7v160006Ev, symObjAddr: 0x1BEC, symBinAddr: 0x100002DAC, symSize: 0x28 }
  - { offsetInCU: 0xA816, offset: 0xA816, size: 0x8, addend: 0x0, symName: __ZNKSt3__117__compressed_pairINS_12basic_stringIcNS_11char_traitsIcEENS_9allocatorIcEEE5__repES5_E5firstB7v160006Ev, symObjAddr: 0x1C14, symBinAddr: 0x100002DD4, symSize: 0x24 }
  - { offsetInCU: 0xA83B, offset: 0xA83B, size: 0x8, addend: 0x0, symName: __ZNKSt3__122__compressed_pair_elemINS_12basic_stringIcNS_11char_traitsIcEENS_9allocatorIcEEE5__repELi0ELb0EE5__getB7v160006Ev, symObjAddr: 0x1C38, symBinAddr: 0x100002DF8, symSize: 0x14 }
  - { offsetInCU: 0xA860, offset: 0xA860, size: 0x8, addend: 0x0, symName: __ZNSt3__114pointer_traitsIPKcE10pointer_toB7v160006ERS1_, symObjAddr: 0x1C4C, symBinAddr: 0x100002E0C, symSize: 0x14 }
  - { offsetInCU: 0xA883, offset: 0xA883, size: 0x8, addend: 0x0, symName: __ZNSt3__119ostreambuf_iteratorIcNS_11char_traitsIcEEEC2B7v160006ERNS_13basic_ostreamIcS2_EE, symObjAddr: 0x1C60, symBinAddr: 0x100002E20, symSize: 0x54 }
  - { offsetInCU: 0xA8B9, offset: 0xA8B9, size: 0x8, addend: 0x0, symName: __ZNKSt3__19basic_iosIcNS_11char_traitsIcEEE5rdbufB7v160006Ev, symObjAddr: 0x1CB4, symBinAddr: 0x100002E74, symSize: 0x24 }
  - { offsetInCU: 0xA8E0, offset: 0xA8E0, size: 0x8, addend: 0x0, symName: __ZNKSt3__18ios_base5rdbufB7v160006Ev, symObjAddr: 0x1CD8, symBinAddr: 0x100002E98, symSize: 0x18 }
  - { offsetInCU: 0xA905, offset: 0xA905, size: 0x8, addend: 0x0, symName: __ZNSt3__111char_traitsIcE11eq_int_typeEii, symObjAddr: 0x1CF0, symBinAddr: 0x100002EB0, symSize: 0x28 }
  - { offsetInCU: 0xA936, offset: 0xA936, size: 0x8, addend: 0x0, symName: __ZNSt3__111char_traitsIcE3eofEv, symObjAddr: 0x1D18, symBinAddr: 0x100002ED8, symSize: 0x8 }
  - { offsetInCU: 0xA94A, offset: 0xA94A, size: 0x8, addend: 0x0, symName: __ZNKSt3__19basic_iosIcNS_11char_traitsIcEEE5widenB7v160006Ec, symObjAddr: 0x1D20, symBinAddr: 0x100002EE0, symSize: 0x84 }
  - { offsetInCU: 0xA9B6, offset: 0xA9B6, size: 0x8, addend: 0x0, symName: __ZNKSt3__15ctypeIcE5widenB7v160006Ec, symObjAddr: 0x1DD0, symBinAddr: 0x100002F90, symSize: 0x38 }
  - { offsetInCU: 0xA9EA, offset: 0xA9EA, size: 0x8, addend: 0x0, symName: __ZNSt3__18ios_base8setstateB7v160006Ej, symObjAddr: 0x1E08, symBinAddr: 0x100002FC8, symSize: 0x34 }
  - { offsetInCU: 0xAA1F, offset: 0xAA1F, size: 0x8, addend: 0x0, symName: __ZNKSt3__112basic_stringIcNS_11char_traitsIcEENS_9allocatorIcEEE4sizeB7v160006Ev, symObjAddr: 0x1E60, symBinAddr: 0x100003020, symSize: 0x54 }
  - { offsetInCU: 0xAA43, offset: 0xAA43, size: 0x8, addend: 0x0, symName: __ZNKSt3__112basic_stringIcNS_11char_traitsIcEENS_9allocatorIcEEE15__get_long_sizeB7v160006Ev, symObjAddr: 0x1EB4, symBinAddr: 0x100003074, symSize: 0x28 }
  - { offsetInCU: 0xAA67, offset: 0xAA67, size: 0x8, addend: 0x0, symName: __ZNKSt3__112basic_stringIcNS_11char_traitsIcEENS_9allocatorIcEEE16__get_short_sizeB7v160006Ev, symObjAddr: 0x1EDC, symBinAddr: 0x10000309C, symSize: 0x34 }
  - { offsetInCU: 0xAA8C, offset: 0xAA8C, size: 0x8, addend: 0x0, symName: __ZN4GiftC2ERKNSt3__112basic_stringIcNS0_11char_traitsIcEENS0_9allocatorIcEEEEi, symObjAddr: 0x1F10, symBinAddr: 0x1000030D0, symSize: 0x40 }
  - { offsetInCU: 0xAACF, offset: 0xAACF, size: 0x8, addend: 0x0, symName: __ZN4GiftD2Ev, symObjAddr: 0x1F50, symBinAddr: 0x100003110, symSize: 0x2C }
  - { offsetInCU: 0xAAF9, offset: 0xAAF9, size: 0x8, addend: 0x0, symName: __ZNSt3__14listI4GiftNS_9allocatorIS1_EEE5beginB7v160006Ev, symObjAddr: 0x1F7C, symBinAddr: 0x10000313C, symSize: 0x2C }
  - { offsetInCU: 0xAB1D, offset: 0xAB1D, size: 0x8, addend: 0x0, symName: __ZNSt3__14listI4GiftNS_9allocatorIS1_EEE3endB7v160006Ev, symObjAddr: 0x1FA8, symBinAddr: 0x100003168, symSize: 0x2C }
  - { offsetInCU: 0xAB41, offset: 0xAB41, size: 0x8, addend: 0x0, symName: __ZNKSt3__115__list_iteratorI4GiftPvEdeB7v160006Ev, symObjAddr: 0x2008, symBinAddr: 0x1000031C8, symSize: 0x2C }
  - { offsetInCU: 0xAB66, offset: 0xAB66, size: 0x8, addend: 0x0, symName: __ZNSt3__115__list_iteratorI4GiftPvEppB7v160006Ev, symObjAddr: 0x2034, symBinAddr: 0x1000031F4, symSize: 0x20 }
  - { offsetInCU: 0xAB8A, offset: 0xAB8A, size: 0x8, addend: 0x0, symName: __ZNSt3__110__list_impI4GiftNS_9allocatorIS1_EEE5beginB7v160006Ev, symObjAddr: 0x2054, symBinAddr: 0x100003214, symSize: 0x30 }
  - { offsetInCU: 0xABAF, offset: 0xABAF, size: 0x8, addend: 0x0, symName: __ZNSt3__115__list_iteratorI4GiftPvEC1B7v160006EPNS_16__list_node_baseIS1_S2_EEPKv, symObjAddr: 0x2084, symBinAddr: 0x100003244, symSize: 0x3C }
  - { offsetInCU: 0xABF5, offset: 0xABF5, size: 0x8, addend: 0x0, symName: __ZNSt3__115__list_iteratorI4GiftPvEC2B7v160006EPNS_16__list_node_baseIS1_S2_EEPKv, symObjAddr: 0x20C0, symBinAddr: 0x100003280, symSize: 0x24 }
  - { offsetInCU: 0xAC3B, offset: 0xAC3B, size: 0x8, addend: 0x0, symName: __ZNSt3__110__list_impI4GiftNS_9allocatorIS1_EEE3endB7v160006Ev, symObjAddr: 0x20E4, symBinAddr: 0x1000032A4, symSize: 0x3C }
  - { offsetInCU: 0xAC5F, offset: 0xAC5F, size: 0x8, addend: 0x0, symName: __ZNSt3__116__list_node_baseI4GiftPvE9__as_nodeB7v160006Ev, symObjAddr: 0x2150, symBinAddr: 0x100003310, symSize: 0x24 }
  - { offsetInCU: 0xAC83, offset: 0xAC83, size: 0x8, addend: 0x0, symName: __ZNKSt3__115__list_iteratorI4GiftPvEptB7v160006Ev, symObjAddr: 0x22BC, symBinAddr: 0x10000347C, symSize: 0x30 }
  - { offsetInCU: 0xACA8, offset: 0xACA8, size: 0x8, addend: 0x0, symName: __ZNSt3__14listI4GiftNS_9allocatorIS1_EEE5eraseENS_21__list_const_iteratorIS1_PvEE, symObjAddr: 0x22EC, symBinAddr: 0x1000034AC, symSize: 0xA4 }
  - { offsetInCU: 0xAD1A, offset: 0xAD1A, size: 0x8, addend: 0x0, symName: __ZNSt3__121__list_const_iteratorI4GiftPvEC1B7v160006ERKNS_15__list_iteratorIS1_S2_EE, symObjAddr: 0x2390, symBinAddr: 0x100003550, symSize: 0x34 }
  - { offsetInCU: 0xAD51, offset: 0xAD51, size: 0x8, addend: 0x0, symName: __ZNSt3__111char_traitsIcE7compareEPKcS3_m, symObjAddr: 0x23C4, symBinAddr: 0x100003584, symSize: 0x6C }
  - { offsetInCU: 0xAD90, offset: 0xAD90, size: 0x8, addend: 0x0, symName: __ZNSt3__114pointer_traitsIP4GiftE10pointer_toB7v160006ERS1_, symObjAddr: 0x2464, symBinAddr: 0x100003624, symSize: 0x14 }
  - { offsetInCU: 0xADB3, offset: 0xADB3, size: 0x8, addend: 0x0, symName: __ZNSt3__110__list_impI4GiftNS_9allocatorIS1_EEE14__unlink_nodesEPNS_16__list_node_baseIS1_PvEES8_, symObjAddr: 0x2478, symBinAddr: 0x100003638, symSize: 0x3C }
  - { offsetInCU: 0xADE8, offset: 0xADE8, size: 0x8, addend: 0x0, symName: __ZNSt3__116allocator_traitsINS_9allocatorINS_11__list_nodeI4GiftPvEEEEE7destroyB7v160006IS3_vvEEvRS6_PT_, symObjAddr: 0x24B4, symBinAddr: 0x100003674, symSize: 0x28 }
  - { offsetInCU: 0xAE23, offset: 0xAE23, size: 0x8, addend: 0x0, symName: __ZNSt3__121__list_const_iteratorI4GiftPvEC2B7v160006ERKNS_15__list_iteratorIS1_S2_EE, symObjAddr: 0x24DC, symBinAddr: 0x10000369C, symSize: 0x24 }
  - { offsetInCU: 0xAE5A, offset: 0xAE5A, size: 0x8, addend: 0x0, symName: __ZN5SantaD2Ev, symObjAddr: 0x2500, symBinAddr: 0x1000036C0, symSize: 0x2C }
  - { offsetInCU: 0xAE85, offset: 0xAE85, size: 0x8, addend: 0x0, symName: __ZNSt3__14listI4GiftNS_9allocatorIS1_EEED1Ev, symObjAddr: 0x252C, symBinAddr: 0x1000036EC, symSize: 0x2C }
  - { offsetInCU: 0xAEB1, offset: 0xAEB1, size: 0x8, addend: 0x0, symName: __ZNSt3__14listI4GiftNS_9allocatorIS1_EEED2Ev, symObjAddr: 0x2558, symBinAddr: 0x100003718, symSize: 0x2C }
  - { offsetInCU: 0xAEDD, offset: 0xAEDD, size: 0x8, addend: 0x0, symName: __ZNSt3__110__list_impI4GiftNS_9allocatorIS1_EEED2Ev, symObjAddr: 0x2584, symBinAddr: 0x100003744, symSize: 0x3C }
  - { offsetInCU: 0xAF08, offset: 0xAF08, size: 0x8, addend: 0x0, symName: __ZNSt3__110__list_impI4GiftNS_9allocatorIS1_EEE5clearEv, symObjAddr: 0x25C0, symBinAddr: 0x100003780, symSize: 0xDC }
  - { offsetInCU: 0xAF7F, offset: 0xAF7F, size: 0x8, addend: 0x0, symName: __ZNKSt3__110__list_impI4GiftNS_9allocatorIS1_EEE5emptyB7v160006Ev, symObjAddr: 0x26AC, symBinAddr: 0x10000386C, symSize: 0x34 }
  - { offsetInCU: 0xAFA3, offset: 0xAFA3, size: 0x8, addend: 0x0, symName: __ZNKSt3__110__list_impI4GiftNS_9allocatorIS1_EEE4__szB7v160006Ev, symObjAddr: 0x26F0, symBinAddr: 0x1000038B0, symSize: 0x28 }
  - { offsetInCU: 0xAFC7, offset: 0xAFC7, size: 0x8, addend: 0x0, symName: __ZNKSt3__117__compressed_pairImNS_9allocatorINS_11__list_nodeI4GiftPvEEEEE5firstB7v160006Ev, symObjAddr: 0x2718, symBinAddr: 0x1000038D8, symSize: 0x24 }
  - { offsetInCU: 0xAFEC, offset: 0xAFEC, size: 0x8, addend: 0x0, symName: __ZNKSt3__122__compressed_pair_elemImLi0ELb0EE5__getB7v160006Ev, symObjAddr: 0x273C, symBinAddr: 0x1000038FC, symSize: 0x14 }
  - { offsetInCU: 0xB011, offset: 0xB011, size: 0x8, addend: 0x0, symName: __ZNSt3__112basic_stringIcNS_11char_traitsIcEENS_9allocatorIcEEEC2B7v160006IDnEEPKc, symObjAddr: 0x2750, symBinAddr: 0x100003910, symSize: 0x60 }
...
